target datalayout = "e-m:e-p270:32:32-p271:32:32-p272:64:64-i64:64-i128:128-f80:128-n8:16:32:64-S128"
target triple = "x86_64-pc-linux-gnu"

%struct.ParseState = type { ptr, ptr, i32, i32, ptr, ptr, ptr, ptr, ptr, ptr, i8, ptr, ptr, ptr, ptr, ptr, ptr, i8, ptr, i32, i32, ptr, ptr, i8, i8, ptr, i8, i8, i8, i8, i8, ptr, ptr, ptr, ptr, ptr, ptr }

@.str = private unnamed_addr constant [41 x i8] c"target lists can have at most %d entries\00", align 1
@.str.1 = private unnamed_addr constant [13 x i8] c"parse_node.c\00", align 1
@__func__.free_parsestate = private unnamed_addr constant [16 x i8] c"free_parsestate\00", align 1

; Function Attrs: nounwind uwtable
define dso_local void @free_parsestate(ptr noundef %0) #0 {
  %2 = alloca ptr, align 8
  store ptr %0, ptr %2, align 8
  %3 = load ptr, ptr %2, align 8
  %4 = getelementptr inbounds nuw %struct.ParseState, ptr %3, i32 0, i32 20
  %5 = load i32, ptr %4, align 4
  %6 = sub i32 %5, 1
  %7 = icmp sgt i32 %6, 1664
  br i1 %7, label %8, label %19

8:                                                ; preds = %1
  br label %9

9:                                                ; preds = %8
  br i1 true, label %10, label %12

10:                                               ; preds = %9
  %11 = call zeroext i1 @errstart_cold(i32 noundef 21, ptr noundef null) #8
  br i1 %11, label %14, label %17

12:                                               ; preds = %9
  %13 = call zeroext i1 @errstart(i32 noundef 21, ptr noundef null)
  br i1 %13, label %14, label %17

14:                                               ; preds = %12, %10
  %15 = call i32 @errcode(i32 noundef 17039621)
  %16 = call i32 (ptr, ...) @errmsg(ptr noundef @.str, i32 noundef 1664)
  call void @errfinish(ptr noundef @.str.1, i32 noundef 83, ptr noundef @__func__.free_parsestate)
  br label %17

17:                                               ; preds = %14, %12, %10
  unreachable

18:                                               ; No predecessors!
  br label %19

19:                                               ; preds = %18, %1
  %20 = load ptr, ptr %2, align 8
  %21 = getelementptr inbounds nuw %struct.ParseState, ptr %20, i32 0, i32 14
  %22 = load ptr, ptr %21, align 8
  %23 = icmp ne ptr %22, null
  br i1 %23, label %24, label %28

24:                                               ; preds = %19
  %25 = load ptr, ptr %2, align 8
  %26 = getelementptr inbounds nuw %struct.ParseState, ptr %25, i32 0, i32 14
  %27 = load ptr, ptr %26, align 8
  call void @table_close(ptr noundef %27, i32 noundef 0)
  br label %28

28:                                               ; preds = %24, %19
  %29 = load ptr, ptr %2, align 8
  call void @pfree(ptr noundef %29)
  ret void
}