; Function Attrs: nounwind uwtable
define dso_local void @free_parsestate(ptr noundef %0) local_unnamed_addr #0 {
  %2 = getelementptr inbounds nuw i8, ptr %0, i64 148
  %3 = load i32, ptr %2, align 4
  %4 = add i32 %3, -1
  %5 = icmp sgt i32 %4, 1664
  br i1 %5, label %6, label %10

6:                                                ; preds = %1
  %7 = tail call zeroext i1 @errstart_cold(i32 noundef 21, ptr noundef null) #9
  tail call void @llvm.assume(i1 %7)
  %8 = tail call i32 @errcode(i32 noundef 17039621) #8
  %9 = tail call i32 (ptr, ...) @errmsg(ptr noundef nonnull @.str, i32 noundef 1664) #8
  tail call void @errfinish(ptr noundef nonnull @.str.1, i32 noundef 83, ptr noundef nonnull @__func__.free_parsestate) #8
  unreachable

10:                                               ; preds = %1
  %11 = getelementptr inbounds nuw i8, ptr %0, i64 104
  %12 = load ptr, ptr %11, align 8
  %.not = icmp eq ptr %12, null
  br i1 %.not, label %14, label %13

13:                                               ; preds = %10
  tail call void @table_close(ptr noundef nonnull %12, i32 noundef 0) #8
  br label %14

14:                                               ; preds = %13, %10
  tail call void @pfree(ptr noundef nonnull %0) #8
  ret void
}